target datalayout = "e-m:e-p270:32:32-p271:32:32-p272:64:64-i64:64-i128:128-f80:128-n8:16:32:64-S128"
target triple = "x86_64-pc-linux-gnu"

%"class.std::shared_ptr" = type { %"class.std::__shared_ptr" }
%"class.std::__shared_ptr" = type { ptr, %"class.std::__shared_count" }
%"class.std::__shared_count" = type { ptr }
%"class.open_spiel::catch_::CatchState" = type { %"class.open_spiel::State.base", i32, i32, i8, i32, i32, i32, [4 x i8] }
%"class.open_spiel::State.base" = type <{ ptr, %"class.std::shared_ptr", i32, i32, %"class.std::vector", i32 }>
%"class.std::vector" = type { %"struct.std::_Vector_base" }
%"struct.std::_Vector_base" = type { %"struct.std::_Vector_base<open_spiel::State::PlayerAction, std::allocator<open_spiel::State::PlayerAction>>::_Vector_impl" }
%"struct.std::_Vector_base<open_spiel::State::PlayerAction, std::allocator<open_spiel::State::PlayerAction>>::_Vector_impl" = type { %"struct.std::_Vector_base<open_spiel::State::PlayerAction, std::allocator<open_spiel::State::PlayerAction>>::_Vector_impl_data" }
%"struct.std::_Vector_base<open_spiel::State::PlayerAction, std::allocator<open_spiel::State::PlayerAction>>::_Vector_impl_data" = type { ptr, ptr, ptr }

; Function Attrs: mustprogress nounwind uwtable
define noundef zeroext i1 @_ZNK10open_spiel6catch_10CatchState10IsTerminalEv(ptr noundef nonnull align 8 dereferenceable(84) %0) unnamed_addr #5 align 2 {
  %2 = alloca ptr, align 8
  store ptr %0, ptr %2, align 8
  %3 = load ptr, ptr %2, align 8
  %4 = getelementptr inbounds nuw %"class.open_spiel::catch_::CatchState", ptr %3, i32 0, i32 3
  %5 = load i8, ptr %4, align 4
  %6 = trunc i8 %5 to i1
  br i1 %6, label %7, label %14

7:                                                ; preds = %1
  %8 = getelementptr inbounds nuw %"class.open_spiel::catch_::CatchState", ptr %3, i32 0, i32 4
  %9 = load i32, ptr %8, align 8
  %10 = getelementptr inbounds nuw %"class.open_spiel::catch_::CatchState", ptr %3, i32 0, i32 1
  %11 = load i32, ptr %10, align 4
  %12 = sub nsw i32 %11, 1
  %13 = icmp sge i32 %9, %12
  br label %14

14:                                               ; preds = %7, %1
  %15 = phi i1 [ false, %1 ], [ %13, %7 ]
  ret i1 %15
}