; Function Attrs: mustprogress nofree norecurse nosync nounwind willreturn memory(argmem: read) uwtable
define noundef zeroext i1 @_ZNK10open_spiel6catch_10CatchState10IsTerminalEv(ptr nocapture noundef nonnull readonly align 8 dereferenceable(84) %0) unnamed_addr #8 align 2 {
  %2 = getelementptr inbounds nuw i8, ptr %0, i64 68
  %3 = load i8, ptr %2, align 4
  %4 = trunc i8 %3 to i1
  %5 = getelementptr inbounds nuw i8, ptr %0, i64 72
  %6 = load i32, ptr %5, align 8
  %7 = getelementptr inbounds nuw i8, ptr %0, i64 60
  %8 = load i32, ptr %7, align 4
  %9 = add nsw i32 %8, -1
  %10 = icmp sge i32 %6, %9
  %11 = select i1 %4, i1 %10, i1 false
  ret i1 %11
}